; Function Attrs: mustprogress nounwind uwtable
define internal fastcc void @_ZN12_GLOBAL__N_120SelectionDAGLegalize11ReplaceNodeEPN4llvm6SDNodeES3_(ptr noundef nonnull readonly align 8 captures(none) dereferenceable(40) %0, ptr noundef %1, ptr noundef %2) unnamed_addr #0 align 2 {
  %4 = alloca ptr, align 8
  %5 = alloca ptr, align 8
  store ptr %2, ptr %5, align 8
  %6 = getelementptr inbounds nuw i8, ptr %0, i64 16
  %7 = load ptr, ptr %6, align 8
  tail call void @_ZN4llvm12SelectionDAG18ReplaceAllUsesWithEPNS_6SDNodeES2_(ptr noundef nonnull align 8 dereferenceable(904) %7, ptr noundef %1, ptr noundef %2) #18
  %8 = getelementptr inbounds nuw i8, ptr %0, i64 32
  %9 = load ptr, ptr %8, align 8
  %.not = icmp eq ptr %9, null
  br i1 %.not, label %12, label %10

10:                                               ; preds = %3
  %11 = call noundef zeroext i1 @_ZN4llvm9SetVectorIPNS_6SDNodeENS_11SmallVectorIS2_Lj16EEENS_8DenseSetIS2_NS_12DenseMapInfoIS2_vEEEELj16EE6insertERKS2_(ptr noundef nonnull align 8 dereferenceable(168) %9, ptr noundef nonnull align 8 dereferenceable(8) %5)
  br label %12

12:                                               ; preds = %10, %3
  call void @llvm.lifetime.start.p0(i64 8, ptr nonnull %4)
  store ptr %1, ptr %4, align 8
  %13 = getelementptr inbounds nuw i8, ptr %0, i64 24
  %14 = load ptr, ptr %13, align 8
  %15 = getelementptr inbounds nuw i8, ptr %14, i64 8
  %16 = load ptr, ptr %15, align 8
  %17 = load ptr, ptr %14, align 8
  %18 = icmp eq ptr %16, %17
  br i1 %18, label %19, label %33

19:                                               ; preds = %12
  %20 = getelementptr inbounds nuw i8, ptr %14, i64 20
  %21 = load i32, ptr %20, align 4
  %22 = zext i32 %21 to i64
  %23 = getelementptr inbounds nuw ptr, ptr %17, i64 %22
  %.not1315.i.i.i = icmp eq i32 %21, 0
  br i1 %.not1315.i.i.i, label %_ZN4llvm15SmallPtrSetImplIPNS_6SDNodeEE5eraseES2_.exit.i, label %.lr.ph.i.i.i

.lr.ph.i.i.i:                                     ; preds = %19, %31
  %.01116.i.i.i = phi ptr [ %32, %31 ], [ %17, %19 ]
  %24 = load ptr, ptr %.01116.i.i.i, align 8
  %25 = icmp eq ptr %24, %1
  br i1 %25, label %26, label %31

26:                                               ; preds = %.lr.ph.i.i.i
  %27 = add i32 %21, -1
  store i32 %27, ptr %20, align 4
  %28 = zext i32 %27 to i64
  %29 = getelementptr inbounds nuw ptr, ptr %17, i64 %28
  %30 = load ptr, ptr %29, align 8
  store ptr %30, ptr %.01116.i.i.i, align 8
  br label %_ZN4llvm15SmallPtrSetImplIPNS_6SDNodeEE5eraseES2_.exit.i

31:                                               ; preds = %.lr.ph.i.i.i
  %32 = getelementptr inbounds nuw i8, ptr %.01116.i.i.i, i64 8
  %.not13.i.i.i = icmp eq ptr %32, %23
  br i1 %.not13.i.i.i, label %_ZN4llvm15SmallPtrSetImplIPNS_6SDNodeEE5eraseES2_.exit.i, label %.lr.ph.i.i.i, !llvm.loop !13

33:                                               ; preds = %12
  %34 = call noundef ptr @_ZNK4llvm19SmallPtrSetImplBase6doFindEPKv(ptr noundef nonnull align 8 dereferenceable(28) %14, ptr noundef %1) #18
  %.not.i.i.i = icmp eq ptr %34, null
  br i1 %.not.i.i.i, label %_ZN4llvm15SmallPtrSetImplIPNS_6SDNodeEE5eraseES2_.exit.i, label %35

35:                                               ; preds = %33
  store ptr inttoptr (i64 -2 to ptr), ptr %34, align 8
  %36 = getelementptr inbounds nuw i8, ptr %14, i64 24
  %37 = load i32, ptr %36, align 8
  %38 = add i32 %37, 1
  store i32 %38, ptr %36, align 8
  br label %_ZN4llvm15SmallPtrSetImplIPNS_6SDNodeEE5eraseES2_.exit.i

_ZN4llvm15SmallPtrSetImplIPNS_6SDNodeEE5eraseES2_.exit.i: ; preds = %31, %35, %33, %26, %19
  %39 = load ptr, ptr %8, align 8
  %.not.i = icmp eq ptr %39, null
  br i1 %.not.i, label %_ZN12_GLOBAL__N_120SelectionDAGLegalize12ReplacedNodeEPN4llvm6SDNodeE.exit, label %40

40:                                               ; preds = %_ZN4llvm15SmallPtrSetImplIPNS_6SDNodeEE5eraseES2_.exit.i
  %41 = call noundef zeroext i1 @_ZN4llvm9SetVectorIPNS_6SDNodeENS_11SmallVectorIS2_Lj16EEENS_8DenseSetIS2_NS_12DenseMapInfoIS2_vEEEELj16EE6insertERKS2_(ptr noundef nonnull align 8 dereferenceable(168) %39, ptr noundef nonnull align 8 dereferenceable(8) %4)
  br label %_ZN12_GLOBAL__N_120SelectionDAGLegalize12ReplacedNodeEPN4llvm6SDNodeE.exit

_ZN12_GLOBAL__N_120SelectionDAGLegalize12ReplacedNodeEPN4llvm6SDNodeE.exit: ; preds = %_ZN4llvm15SmallPtrSetImplIPNS_6SDNodeEE5eraseES2_.exit.i, %40
  call void @llvm.lifetime.end.p0(i64 8, ptr nonnull %4)
  ret void
}